target datalayout = "e-m:e-p270:32:32-p271:32:32-p272:64:64-i64:64-i128:128-f80:128-n8:16:32:64-S128"
target triple = "x86_64-pc-linux-gnu"

; Function Attrs: inlinehint nounwind uwtable
define internal void @pmix_strncpy(ptr noundef %0, ptr noundef %1, i64 noundef %2) #1 {
  %4 = alloca ptr, align 8
  %5 = alloca ptr, align 8
  %6 = alloca i64, align 8
  %7 = alloca i64, align 8
  store ptr %0, ptr %4, align 8, !tbaa !3
  store ptr %1, ptr %5, align 8, !tbaa !3
  store i64 %2, ptr %6, align 8, !tbaa !30
  call void @llvm.lifetime.start.p0(i64 8, ptr %7) #15
  store i64 0, ptr %7, align 8, !tbaa !30
  br label %8

8:                                                ; preds = %22, %3
  %9 = load i64, ptr %7, align 8, !tbaa !30
  %10 = load i64, ptr %6, align 8, !tbaa !30
  %11 = icmp ult i64 %9, %10
  br i1 %11, label %12, label %29

12:                                               ; preds = %8
  %13 = load ptr, ptr %5, align 8, !tbaa !3
  %14 = load i8, ptr %13, align 1, !tbaa !29
  %15 = load ptr, ptr %4, align 8, !tbaa !3
  store i8 %14, ptr %15, align 1, !tbaa !29
  %16 = load ptr, ptr %5, align 8, !tbaa !3
  %17 = load i8, ptr %16, align 1, !tbaa !29
  %18 = sext i8 %17 to i32
  %19 = icmp eq i32 0, %18
  br i1 %19, label %20, label %21

20:                                               ; preds = %12
  br label %29

21:                                               ; preds = %12
  br label %22

22:                                               ; preds = %21
  %23 = load i64, ptr %7, align 8, !tbaa !30
  %24 = add i64 %23, 1
  store i64 %24, ptr %7, align 8, !tbaa !30
  %25 = load ptr, ptr %5, align 8, !tbaa !3
  %26 = getelementptr inbounds nuw i8, ptr %25, i32 1
  store ptr %26, ptr %5, align 8, !tbaa !3
  %27 = load ptr, ptr %4, align 8, !tbaa !3
  %28 = getelementptr inbounds nuw i8, ptr %27, i32 1
  store ptr %28, ptr %4, align 8, !tbaa !3
  br label %8, !llvm.loop !224

29:                                               ; preds = %20, %8
  %30 = load ptr, ptr %4, align 8, !tbaa !3
  store i8 0, ptr %30, align 1, !tbaa !29
  call void @llvm.lifetime.end.p0(i64 8, ptr %7) #15
  ret void
}

; Function Attrs: inlinehint nounwind uwtable
define internal i64 @pmix_nslen(ptr noundef %0) #1 {
  %2 = alloca i64, align 8
  %3 = alloca ptr, align 8
  %4 = alloca i64, align 8
  %5 = alloca i64, align 8
  %6 = alloca i32, align 4
  store ptr %0, ptr %3, align 8, !tbaa !3
  call void @llvm.lifetime.start.p0(i64 8, ptr %4) #15
  call void @llvm.lifetime.start.p0(i64 8, ptr %5) #15
  %7 = load ptr, ptr %3, align 8, !tbaa !3
  %8 = icmp eq ptr null, %7
  br i1 %8, label %9, label %10

9:                                                ; preds = %1
  store i64 0, ptr %2, align 8
  store i32 1, ptr %6, align 4
  br label %29

10:                                               ; preds = %1
  store i64 256, ptr %5, align 8, !tbaa !30
  store i64 0, ptr %4, align 8, !tbaa !30
  br label %11

11:                                               ; preds = %22, %10
  %12 = load i64, ptr %4, align 8, !tbaa !30
  %13 = load i64, ptr %5, align 8, !tbaa !30
  %14 = icmp ult i64 %12, %13
  br i1 %14, label %15, label %27

15:                                               ; preds = %11
  %16 = load ptr, ptr %3, align 8, !tbaa !3
  %17 = load i8, ptr %16, align 1, !tbaa !29
  %18 = sext i8 %17 to i32
  %19 = icmp eq i32 0, %18
  br i1 %19, label %20, label %21

20:                                               ; preds = %15
  br label %27

21:                                               ; preds = %15
  br label %22

22:                                               ; preds = %21
  %23 = load i64, ptr %4, align 8, !tbaa !30
  %24 = add i64 %23, 1
  store i64 %24, ptr %4, align 8, !tbaa !30
  %25 = load ptr, ptr %3, align 8, !tbaa !3
  %26 = getelementptr inbounds nuw i8, ptr %25, i32 1
  store ptr %26, ptr %3, align 8, !tbaa !3
  br label %11, !llvm.loop !225

27:                                               ; preds = %20, %11
  %28 = load i64, ptr %4, align 8, !tbaa !30
  store i64 %28, ptr %2, align 8
  store i32 1, ptr %6, align 4
  br label %29

29:                                               ; preds = %27, %9
  call void @llvm.lifetime.end.p0(i64 8, ptr %5) #15
  call void @llvm.lifetime.end.p0(i64 8, ptr %4) #15
  %30 = load i64, ptr %2, align 8
  ret i64 %30
}

; Function Attrs: inlinehint nounwind uwtable
define internal void @pmix_bfrops_base_tma_load_nspace(ptr noundef %0, ptr noundef %1, ptr noundef %2) #1 {
  %4 = alloca ptr, align 8
  %5 = alloca ptr, align 8
  %6 = alloca ptr, align 8
  store ptr %0, ptr %4, align 8, !tbaa !3
  store ptr %1, ptr %5, align 8, !tbaa !3
  store ptr %2, ptr %6, align 8, !tbaa !8
  %7 = load ptr, ptr %4, align 8, !tbaa !3
  call void @llvm.memset.p0.i64(ptr align 1 %7, i8 0, i64 256, i1 false)
  %8 = load ptr, ptr %5, align 8, !tbaa !3
  %9 = icmp ne ptr null, %8
  br i1 %9, label %10, label %13

10:                                               ; preds = %3
  %11 = load ptr, ptr %4, align 8, !tbaa !3
  %12 = load ptr, ptr %5, align 8, !tbaa !3
  call void @pmix_strncpy(ptr noundef %11, ptr noundef %12, i64 noundef 255)
  br label %13

13:                                               ; preds = %10, %3
  ret void
}

; Function Attrs: inlinehint nounwind uwtable
define internal void @pmix_bfrops_base_tma_multicluster_nspace_construct(ptr noundef %0, ptr noundef %1, ptr noundef %2, ptr noundef %3) #1 {
  %5 = alloca ptr, align 8
  %6 = alloca ptr, align 8
  %7 = alloca ptr, align 8
  %8 = alloca ptr, align 8
  %9 = alloca i64, align 8
  store ptr %0, ptr %5, align 8, !tbaa !3
  store ptr %1, ptr %6, align 8, !tbaa !3
  store ptr %2, ptr %7, align 8, !tbaa !3
  store ptr %3, ptr %8, align 8, !tbaa !8
  %10 = load ptr, ptr %5, align 8, !tbaa !3
  %11 = load ptr, ptr %8, align 8, !tbaa !8
  call void @pmix_bfrops_base_tma_load_nspace(ptr noundef %10, ptr noundef null, ptr noundef %11)
  call void @llvm.lifetime.start.p0(i64 8, ptr %9) #15
  %12 = load ptr, ptr %6, align 8, !tbaa !3
  %13 = call i64 @pmix_nslen(ptr noundef %12)
  store i64 %13, ptr %9, align 8, !tbaa !30
  %14 = load i64, ptr %9, align 8, !tbaa !30
  %15 = load ptr, ptr %7, align 8, !tbaa !3
  %16 = call i64 @pmix_nslen(ptr noundef %15)
  %17 = add i64 %14, %16
  %18 = icmp ult i64 %17, 255
  br i1 %18, label %19, label %32

19:                                               ; preds = %4
  %20 = load ptr, ptr %5, align 8, !tbaa !3
  %21 = load ptr, ptr %6, align 8, !tbaa !3
  call void @pmix_strncpy(ptr noundef %20, ptr noundef %21, i64 noundef 255)
  %22 = load ptr, ptr %5, align 8, !tbaa !3
  %23 = load i64, ptr %9, align 8, !tbaa !30
  %24 = getelementptr inbounds nuw i8, ptr %22, i64 %23
  store i8 58, ptr %24, align 1, !tbaa !29
  %25 = load ptr, ptr %5, align 8, !tbaa !3
  %26 = load i64, ptr %9, align 8, !tbaa !30
  %27 = add i64 %26, 1
  %28 = getelementptr inbounds nuw i8, ptr %25, i64 %27
  %29 = load ptr, ptr %7, align 8, !tbaa !3
  %30 = load i64, ptr %9, align 8, !tbaa !30
  %31 = sub i64 255, %30
  call void @pmix_strncpy(ptr noundef %28, ptr noundef %29, i64 noundef %31)
  br label %32

32:                                               ; preds = %19, %4
  call void @llvm.lifetime.end.p0(i64 8, ptr %9) #15
  ret void
}

; Function Attrs: nounwind uwtable
define void @PMIx_Multicluster_nspace_construct(ptr noundef %0, ptr noundef %1, ptr noundef %2) #0 {
  %4 = alloca ptr, align 8
  %5 = alloca ptr, align 8
  %6 = alloca ptr, align 8
  store ptr %0, ptr %4, align 8, !tbaa !3
  store ptr %1, ptr %5, align 8, !tbaa !3
  store ptr %2, ptr %6, align 8, !tbaa !3
  %7 = load ptr, ptr %4, align 8, !tbaa !3
  %8 = load ptr, ptr %5, align 8, !tbaa !3
  %9 = load ptr, ptr %6, align 8, !tbaa !3
  call void @pmix_bfrops_base_tma_multicluster_nspace_construct(ptr noundef %7, ptr noundef %8, ptr noundef %9, ptr noundef null)
  ret void
}