; Function Attrs: nofree norecurse nosync nounwind memory(argmem: readwrite) uwtable
define void @PMIx_Multicluster_nspace_construct(ptr noundef writeonly captures(none) initializes((0, 256)) %0, ptr noundef readonly captures(address_is_null) %1, ptr noundef readonly captures(address_is_null) %2) local_unnamed_addr #0 {
  tail call void @llvm.memset.p0.i64(ptr noundef nonnull align 1 dereferenceable(256) %0, i8 0, i64 256, i1 false)
  %4 = icmp eq ptr %1, null
  br i1 %4, label %pmix_nslen.exit.i, label %.preheader.i.i

.preheader.i.i:                                   ; preds = %3, %7
  %.0711.i.i = phi i64 [ %8, %7 ], [ 0, %3 ]
  %.0810.i.i = phi ptr [ %9, %7 ], [ %1, %3 ]
  %5 = load i8, ptr %.0810.i.i, align 1, !tbaa !3
  %6 = icmp eq i8 %5, 0
  br i1 %6, label %pmix_nslen.exit.i, label %7

7:                                                ; preds = %.preheader.i.i
  %8 = add nuw nsw i64 %.0711.i.i, 1
  %9 = getelementptr inbounds nuw i8, ptr %.0810.i.i, i64 1
  %exitcond.not.i.i = icmp eq i64 %8, 256
  br i1 %exitcond.not.i.i, label %pmix_nslen.exit.i, label %.preheader.i.i, !llvm.loop !8

pmix_nslen.exit.i:                                ; preds = %7, %.preheader.i.i, %3
  %.0.i.i = phi i64 [ 0, %3 ], [ %.0711.i.i, %.preheader.i.i ], [ 256, %7 ]
  %10 = icmp eq ptr %2, null
  br i1 %10, label %pmix_nslen.exit17.i, label %.preheader.i12.i

.preheader.i12.i:                                 ; preds = %pmix_nslen.exit.i, %13
  %.0711.i13.i = phi i64 [ %14, %13 ], [ 0, %pmix_nslen.exit.i ]
  %.0810.i14.i = phi ptr [ %15, %13 ], [ %2, %pmix_nslen.exit.i ]
  %11 = load i8, ptr %.0810.i14.i, align 1, !tbaa !3
  %12 = icmp eq i8 %11, 0
  br i1 %12, label %pmix_nslen.exit17.i, label %13

13:                                               ; preds = %.preheader.i12.i
  %14 = add nuw nsw i64 %.0711.i13.i, 1
  %15 = getelementptr inbounds nuw i8, ptr %.0810.i14.i, i64 1
  %exitcond.not.i15.i = icmp eq i64 %14, 256
  br i1 %exitcond.not.i15.i, label %pmix_nslen.exit17.i, label %.preheader.i12.i, !llvm.loop !8

pmix_nslen.exit17.i:                              ; preds = %13, %.preheader.i12.i, %pmix_nslen.exit.i
  %.0.i16.i = phi i64 [ 0, %pmix_nslen.exit.i ], [ %.0711.i13.i, %.preheader.i12.i ], [ 256, %13 ]
  %16 = add nuw i64 %.0.i16.i, %.0.i.i
  %17 = icmp ult i64 %16, 255
  br i1 %17, label %.lr.ph.i.i, label %pmix_bfrops_base_tma_multicluster_nspace_construct.exit

.lr.ph.i.i:                                       ; preds = %pmix_nslen.exit17.i, %20
  %.012.i.i = phi i64 [ %21, %20 ], [ 0, %pmix_nslen.exit17.i ]
  %.0811.i.i = phi ptr [ %23, %20 ], [ %0, %pmix_nslen.exit17.i ]
  %.0910.i.i = phi ptr [ %22, %20 ], [ %1, %pmix_nslen.exit17.i ]
  %18 = load i8, ptr %.0910.i.i, align 1, !tbaa !3
  store i8 %18, ptr %.0811.i.i, align 1, !tbaa !3
  %19 = icmp eq i8 %18, 0
  br i1 %19, label %pmix_strncpy.exit.i, label %20

20:                                               ; preds = %.lr.ph.i.i
  %21 = add nuw nsw i64 %.012.i.i, 1
  %22 = getelementptr inbounds nuw i8, ptr %.0910.i.i, i64 1
  %23 = getelementptr inbounds nuw i8, ptr %.0811.i.i, i64 1
  %exitcond.not.i18.i = icmp eq i64 %21, 255
  br i1 %exitcond.not.i18.i, label %pmix_strncpy.exit.i, label %.lr.ph.i.i, !llvm.loop !6

pmix_strncpy.exit.i:                              ; preds = %20, %.lr.ph.i.i
  %.08.lcssa.i.i = phi ptr [ %.0811.i.i, %.lr.ph.i.i ], [ %23, %20 ]
  store i8 0, ptr %.08.lcssa.i.i, align 1, !tbaa !3
  %24 = getelementptr inbounds nuw i8, ptr %0, i64 %.0.i.i
  store i8 58, ptr %24, align 1, !tbaa !3
  %25 = getelementptr i8, ptr %24, i64 1
  %26 = sub nuw nsw i64 255, %.0.i.i
  br label %.lr.ph.i19.i

.lr.ph.i19.i:                                     ; preds = %29, %pmix_strncpy.exit.i
  %.012.i20.i = phi i64 [ %30, %29 ], [ 0, %pmix_strncpy.exit.i ]
  %.0811.i21.i = phi ptr [ %32, %29 ], [ %25, %pmix_strncpy.exit.i ]
  %.0910.i22.i = phi ptr [ %31, %29 ], [ %2, %pmix_strncpy.exit.i ]
  %27 = load i8, ptr %.0910.i22.i, align 1, !tbaa !3
  store i8 %27, ptr %.0811.i21.i, align 1, !tbaa !3
  %28 = icmp eq i8 %27, 0
  br i1 %28, label %pmix_strncpy.exit25.i, label %29

29:                                               ; preds = %.lr.ph.i19.i
  %30 = add nuw i64 %.012.i20.i, 1
  %31 = getelementptr inbounds nuw i8, ptr %.0910.i22.i, i64 1
  %32 = getelementptr inbounds nuw i8, ptr %.0811.i21.i, i64 1
  %exitcond.not.i23.i = icmp eq i64 %30, %26
  br i1 %exitcond.not.i23.i, label %pmix_strncpy.exit25.i, label %.lr.ph.i19.i, !llvm.loop !6

pmix_strncpy.exit25.i:                            ; preds = %29, %.lr.ph.i19.i
  %.08.lcssa.i24.ph.i = phi ptr [ %32, %29 ], [ %.0811.i21.i, %.lr.ph.i19.i ]
  store i8 0, ptr %.08.lcssa.i24.ph.i, align 1, !tbaa !3
  br label %pmix_bfrops_base_tma_multicluster_nspace_construct.exit

pmix_bfrops_base_tma_multicluster_nspace_construct.exit: ; preds = %pmix_nslen.exit17.i, %pmix_strncpy.exit25.i
  ret void
}